target datalayout = "e-m:e-p270:32:32-p271:32:32-p272:64:64-i64:64-i128:128-f80:128-n8:16:32:64-S128"
target triple = "x86_64-pc-linux-gnu"

%union.JfrNativeSettings = type { [164 x %struct.jfrNativeEventSetting] }
%struct.jfrNativeEventSetting = type { i64, i64, i8, i8, i8, [5 x i8] }
%class.JfrAllocationTracer = type { i8 }
%class.EventObjectAllocationInNewTLAB = type { %class.JfrEvent.base.1, ptr, i64, i64 }
%class.JfrEvent.base.1 = type <{ i64, i64, i8, i8, i8 }>
%class.JfrEvent.0 = type <{ i64, i64, i8, i8, i8, [5 x i8] }>
%class.TimeInstant = type { %class.CounterRepresentation }
%class.CounterRepresentation = type { %class.Representation }
%class.Representation = type { i64 }

@_ZN15JfrEventSetting19_jvm_event_settingsE = external global %union.JfrNativeSettings, align 8
@_ZN6Thread12_thr_currentE = external thread_local global ptr, align 8

; Function Attrs: mustprogress nounwind uwtable
define linkonce_odr hidden void @_ZN14RepresentationI33FastUnorderedElapsedCounterSourceEC2Ev(ptr noundef nonnull align 8 dereferenceable(8) %0) unnamed_addr #1 comdat align 2 {
  %2 = alloca ptr, align 8
  store ptr %0, ptr %2, align 8
  %3 = load ptr, ptr %2, align 8
  %4 = getelementptr inbounds %class.Representation, ptr %3, i32 0, i32 0
  store i64 0, ptr %4, align 8
  ret void
}

; Function Attrs: mustprogress nounwind uwtable
define linkonce_odr hidden void @_ZN21CounterRepresentationI33FastUnorderedElapsedCounterSourceEC2Ev(ptr noundef nonnull align 8 dereferenceable(8) %0) unnamed_addr #1 comdat align 2 {
  %2 = alloca ptr, align 8
  store ptr %0, ptr %2, align 8
  %3 = load ptr, ptr %2, align 8
  call void @_ZN14RepresentationI33FastUnorderedElapsedCounterSourceEC2Ev(ptr noundef nonnull align 8 dereferenceable(8) %3)
  ret void
}

; Function Attrs: mustprogress nounwind uwtable
define linkonce_odr hidden noundef ptr @_ZN6Thread15current_or_nullEv() #1 comdat align 2 {
  %1 = call align 8 ptr @llvm.threadlocal.address.p0(ptr align 8 @_ZN6Thread12_thr_currentE)
  %2 = load ptr, ptr %1, align 8
  ret ptr %2
}

; Function Attrs: mustprogress nounwind uwtable
define linkonce_odr hidden noundef i64 @_ZNK21CounterRepresentationI33FastUnorderedElapsedCounterSourceE5valueEv(ptr noundef nonnull align 8 dereferenceable(8) %0) #1 comdat align 2 {
  %2 = alloca ptr, align 8
  store ptr %0, ptr %2, align 8
  %3 = load ptr, ptr %2, align 8
  %4 = getelementptr inbounds %class.Representation, ptr %3, i32 0, i32 0
  %5 = load i64, ptr %4, align 8
  ret i64 %5
}

; Function Attrs: mustprogress nounwind uwtable
define linkonce_odr hidden void @_ZN11TimeInstantI21CounterRepresentation33FastUnorderedElapsedCounterSourceE5stampEv(ptr noundef nonnull align 8 dereferenceable(8) %0) #1 comdat align 2 {
  %2 = alloca ptr, align 8
  store ptr %0, ptr %2, align 8
  %3 = load ptr, ptr %2, align 8
  %4 = call noundef i64 @_ZN33FastUnorderedElapsedCounterSource3nowEv()
  %5 = getelementptr inbounds %class.Representation, ptr %3, i32 0, i32 0
  store i64 %4, ptr %5, align 8
  ret void
}

; Function Attrs: mustprogress nounwind uwtable
define linkonce_odr hidden void @_ZN11TimeInstantI21CounterRepresentation33FastUnorderedElapsedCounterSourceEC2Ev(ptr noundef nonnull align 8 dereferenceable(8) %0) unnamed_addr #1 comdat align 2 {
  %2 = alloca ptr, align 8
  store ptr %0, ptr %2, align 8
  %3 = load ptr, ptr %2, align 8
  call void @_ZN21CounterRepresentationI33FastUnorderedElapsedCounterSourceEC2Ev(ptr noundef nonnull align 8 dereferenceable(8) %3)
  ret void
}

; Function Attrs: mustprogress nounwind uwtable
define linkonce_odr hidden noundef nonnull align 8 dereferenceable(24) ptr @_ZN15JfrEventSetting7settingE10JfrEventId(i32 noundef %0) #1 comdat align 2 {
  %2 = alloca i32, align 4
  store i32 %0, ptr %2, align 4
  %3 = load i32, ptr %2, align 4
  %4 = zext i32 %3 to i64
  %5 = getelementptr inbounds [164 x %struct.jfrNativeEventSetting], ptr @_ZN15JfrEventSetting19_jvm_event_settingsE, i64 0, i64 %4
  ret ptr %5
}

; Function Attrs: mustprogress nounwind uwtable
define linkonce_odr hidden noundef ptr @_ZN6Thread7currentEv() #1 comdat align 2 {
  %1 = alloca ptr, align 8
  %2 = call noundef ptr @_ZN6Thread15current_or_nullEv()
  store ptr %2, ptr %1, align 8
  %3 = load ptr, ptr %1, align 8
  ret ptr %3
}

; Function Attrs: mustprogress nounwind uwtable
define linkonce_odr hidden void @_ZN8JfrEventI30EventObjectAllocationInNewTLABE11set_endtimeERK11TimeInstantI21CounterRepresentation33FastUnorderedElapsedCounterSourceE(ptr noundef nonnull align 8 dereferenceable(19) %0, ptr noundef nonnull align 8 dereferenceable(8) %1) #1 comdat align 2 {
  %3 = alloca ptr, align 8
  %4 = alloca ptr, align 8
  store ptr %0, ptr %3, align 8
  store ptr %1, ptr %4, align 8
  %5 = load ptr, ptr %3, align 8
  %6 = load ptr, ptr %4, align 8
  %7 = call noundef i64 @_ZNK21CounterRepresentationI33FastUnorderedElapsedCounterSourceE5valueEv(ptr noundef nonnull align 8 dereferenceable(8) %6)
  %8 = getelementptr inbounds %class.JfrEvent.0, ptr %5, i32 0, i32 1
  store i64 %7, ptr %8, align 8
  ret void
}

; Function Attrs: mustprogress nounwind uwtable
define linkonce_odr hidden void @_ZN8JfrEventI30EventObjectAllocationInNewTLABE13set_starttimeERK11TimeInstantI21CounterRepresentation33FastUnorderedElapsedCounterSourceE(ptr noundef nonnull align 8 dereferenceable(19) %0, ptr noundef nonnull align 8 dereferenceable(8) %1) #1 comdat align 2 {
  %3 = alloca ptr, align 8
  %4 = alloca ptr, align 8
  store ptr %0, ptr %3, align 8
  store ptr %1, ptr %4, align 8
  %5 = load ptr, ptr %3, align 8
  %6 = load ptr, ptr %4, align 8
  %7 = call noundef i64 @_ZNK21CounterRepresentationI33FastUnorderedElapsedCounterSourceE5valueEv(ptr noundef nonnull align 8 dereferenceable(8) %6)
  %8 = getelementptr inbounds %class.JfrEvent.0, ptr %5, i32 0, i32 0
  store i64 %7, ptr %8, align 8
  ret void
}

; Function Attrs: mustprogress nounwind uwtable
define linkonce_odr hidden i64 @_ZN11TimeInstantI21CounterRepresentation33FastUnorderedElapsedCounterSourceE3nowEv() #1 comdat align 2 {
  %1 = alloca %class.TimeInstant, align 8
  call void @_ZN11TimeInstantI21CounterRepresentation33FastUnorderedElapsedCounterSourceEC2Ev(ptr noundef nonnull align 8 dereferenceable(8) %1)
  call void @_ZN11TimeInstantI21CounterRepresentation33FastUnorderedElapsedCounterSourceE5stampEv(ptr noundef nonnull align 8 dereferenceable(8) %1)
  %2 = getelementptr inbounds %class.TimeInstant, ptr %1, i32 0, i32 0
  %3 = getelementptr inbounds %class.CounterRepresentation, ptr %2, i32 0, i32 0
  %4 = getelementptr inbounds %class.Representation, ptr %3, i32 0, i32 0
  %5 = load i64, ptr %4, align 8
  ret i64 %5
}

; Function Attrs: mustprogress nounwind uwtable
define linkonce_odr hidden noundef zeroext i1 @_ZN15JfrEventSetting10is_enabledE10JfrEventId(i32 noundef %0) #1 comdat align 2 {
  %2 = alloca i32, align 4
  store i32 %0, ptr %2, align 4
  %3 = load i32, ptr %2, align 4
  %4 = call noundef nonnull align 8 dereferenceable(24) ptr @_ZN15JfrEventSetting7settingE10JfrEventId(i32 noundef %3)
  %5 = getelementptr inbounds %struct.jfrNativeEventSetting, ptr %4, i32 0, i32 3
  %6 = load i8, ptr %5, align 1
  %7 = zext i8 %6 to i32
  %8 = icmp ne i32 0, %7
  ret i1 %8
}

; Function Attrs: mustprogress nounwind uwtable
define linkonce_odr hidden noundef zeroext i1 @_ZN8JfrEventI30EventObjectAllocationInNewTLABE12should_writeEv(ptr noundef nonnull align 8 dereferenceable(19) %0) #1 comdat align 2 {
  %2 = alloca i1, align 1
  %3 = alloca ptr, align 8
  store ptr %0, ptr %3, align 8
  %4 = load ptr, ptr %3, align 8
  %5 = getelementptr inbounds %class.JfrEvent.0, ptr %4, i32 0, i32 4
  %6 = load i8, ptr %5, align 2
  %7 = trunc i8 %6 to i1
  br i1 %7, label %8, label %12

8:                                                ; preds = %1
  %9 = getelementptr inbounds %class.JfrEvent.0, ptr %4, i32 0, i32 3
  %10 = load i8, ptr %9, align 1
  %11 = trunc i8 %10 to i1
  store i1 %11, ptr %2, align 1
  br label %22

12:                                               ; preds = %1
  %13 = call noundef zeroext i1 @_ZN8JfrEventI30EventObjectAllocationInNewTLABE10is_enabledEv()
  br i1 %13, label %15, label %14

14:                                               ; preds = %12
  store i1 false, ptr %2, align 1
  br label %22

15:                                               ; preds = %12
  %16 = call noundef zeroext i1 @_ZN8JfrEventI30EventObjectAllocationInNewTLABE8evaluateEv(ptr noundef nonnull align 8 dereferenceable(19) %4)
  br i1 %16, label %17, label %20

17:                                               ; preds = %15
  %18 = call noundef ptr @_ZN6Thread7currentEv()
  %19 = call noundef zeroext i1 @_ZN14JfrThreadLocal11is_includedEPK6Thread(ptr noundef %18)
  br label %20

20:                                               ; preds = %17, %15
  %21 = phi i1 [ false, %15 ], [ %19, %17 ]
  store i1 %21, ptr %2, align 1
  br label %22

22:                                               ; preds = %20, %14, %8
  %23 = load i1, ptr %2, align 1
  ret i1 %23
}

; Function Attrs: mustprogress nounwind uwtable
define linkonce_odr hidden noundef zeroext i1 @_ZN8JfrEventI30EventObjectAllocationInNewTLABE8evaluateEv(ptr noundef nonnull align 8 dereferenceable(19) %0) #1 comdat align 2 {
  %2 = alloca ptr, align 8
  %3 = alloca %class.TimeInstant, align 8
  %4 = alloca %class.TimeInstant, align 8
  store ptr %0, ptr %2, align 8
  %5 = load ptr, ptr %2, align 8
  %6 = getelementptr inbounds %class.JfrEvent.0, ptr %5, i32 0, i32 0
  %7 = load i64, ptr %6, align 8
  %8 = icmp eq i64 %7, 0
  br i1 %8, label %9, label %14

9:                                                ; preds = %1
  %10 = call i64 @_ZN11TimeInstantI21CounterRepresentation33FastUnorderedElapsedCounterSourceE3nowEv()
  %11 = getelementptr inbounds %class.TimeInstant, ptr %3, i32 0, i32 0
  %12 = getelementptr inbounds %class.CounterRepresentation, ptr %11, i32 0, i32 0
  %13 = getelementptr inbounds %class.Representation, ptr %12, i32 0, i32 0
  store i64 %10, ptr %13, align 8
  call void @_ZN8JfrEventI30EventObjectAllocationInNewTLABE13set_starttimeERK11TimeInstantI21CounterRepresentation33FastUnorderedElapsedCounterSourceE(ptr noundef nonnull align 8 dereferenceable(19) %5, ptr noundef nonnull align 8 dereferenceable(8) %3)
  br label %24

14:                                               ; preds = %1
  %15 = getelementptr inbounds %class.JfrEvent.0, ptr %5, i32 0, i32 1
  %16 = load i64, ptr %15, align 8
  %17 = icmp eq i64 %16, 0
  br i1 %17, label %18, label %23

18:                                               ; preds = %14
  %19 = call i64 @_ZN11TimeInstantI21CounterRepresentation33FastUnorderedElapsedCounterSourceE3nowEv()
  %20 = getelementptr inbounds %class.TimeInstant, ptr %4, i32 0, i32 0
  %21 = getelementptr inbounds %class.CounterRepresentation, ptr %20, i32 0, i32 0
  %22 = getelementptr inbounds %class.Representation, ptr %21, i32 0, i32 0
  store i64 %19, ptr %22, align 8
  call void @_ZN8JfrEventI30EventObjectAllocationInNewTLABE11set_endtimeERK11TimeInstantI21CounterRepresentation33FastUnorderedElapsedCounterSourceE(ptr noundef nonnull align 8 dereferenceable(19) %5, ptr noundef nonnull align 8 dereferenceable(8) %4)
  br label %23

23:                                               ; preds = %18, %14
  br label %24

24:                                               ; preds = %23, %9
  ret i1 true
}

; Function Attrs: mustprogress nounwind uwtable
define linkonce_odr hidden noundef zeroext i1 @_ZN8JfrEventI30EventObjectAllocationInNewTLABE10is_enabledEv() #1 comdat align 2 {
  %1 = call noundef zeroext i1 @_ZN15JfrEventSetting10is_enabledE10JfrEventId(i32 noundef 89)
  ret i1 %1
}

; Function Attrs: mustprogress nounwind uwtable
define linkonce_odr hidden void @_ZN8JfrEventI30EventObjectAllocationInNewTLABEC2E14EventStartTime(ptr noundef nonnull align 8 dereferenceable(19) %0, i32 noundef %1) unnamed_addr #1 comdat align 2 {
  %3 = alloca ptr, align 8
  %4 = alloca i32, align 4
  store ptr %0, ptr %3, align 8
  store i32 %1, ptr %4, align 4
  %5 = load ptr, ptr %3, align 8
  %6 = getelementptr inbounds %class.JfrEvent.0, ptr %5, i32 0, i32 0
  store i64 0, ptr %6, align 8
  %7 = getelementptr inbounds %class.JfrEvent.0, ptr %5, i32 0, i32 1
  store i64 0, ptr %7, align 8
  %8 = getelementptr inbounds %class.JfrEvent.0, ptr %5, i32 0, i32 2
  %9 = load i32, ptr %4, align 4
  %10 = icmp eq i32 %9, 0
  %11 = zext i1 %10 to i8
  store i8 %11, ptr %8, align 8
  %12 = getelementptr inbounds %class.JfrEvent.0, ptr %5, i32 0, i32 3
  store i8 0, ptr %12, align 1
  %13 = getelementptr inbounds %class.JfrEvent.0, ptr %5, i32 0, i32 4
  store i8 0, ptr %13, align 2
  ret void
}

; Function Attrs: mustprogress nounwind uwtable
define linkonce_odr hidden void @_ZN8JfrEventI30EventObjectAllocationInNewTLABE6commitEv(ptr noundef nonnull align 8 dereferenceable(19) %0) #1 comdat align 2 {
  %2 = alloca ptr, align 8
  store ptr %0, ptr %2, align 8
  %3 = load ptr, ptr %2, align 8
  %4 = call noundef zeroext i1 @_ZN8JfrEventI30EventObjectAllocationInNewTLABE12should_writeEv(ptr noundef nonnull align 8 dereferenceable(19) %3)
  br i1 %4, label %6, label %5

5:                                                ; preds = %1
  br label %7

6:                                                ; preds = %1
  call void @_ZN8JfrEventI30EventObjectAllocationInNewTLABE11write_eventEv(ptr noundef nonnull align 8 dereferenceable(19) %3)
  br label %7

7:                                                ; preds = %6, %5
  ret void
}

; Function Attrs: mustprogress nounwind uwtable
define linkonce_odr hidden void @_ZN30EventObjectAllocationInNewTLAB12set_tlabSizeEm(ptr noundef nonnull align 8 dereferenceable(48) %0, i64 noundef %1) #1 comdat align 2 {
  %3 = alloca ptr, align 8
  %4 = alloca i64, align 8
  store ptr %0, ptr %3, align 8
  store i64 %1, ptr %4, align 8
  %5 = load ptr, ptr %3, align 8
  %6 = load i64, ptr %4, align 8
  %7 = getelementptr inbounds %class.EventObjectAllocationInNewTLAB, ptr %5, i32 0, i32 3
  store i64 %6, ptr %7, align 8
  ret void
}

; Function Attrs: mustprogress nounwind uwtable
define linkonce_odr hidden void @_ZN30EventObjectAllocationInNewTLAB18set_allocationSizeEm(ptr noundef nonnull align 8 dereferenceable(48) %0, i64 noundef %1) #1 comdat align 2 {
  %3 = alloca ptr, align 8
  %4 = alloca i64, align 8
  store ptr %0, ptr %3, align 8
  store i64 %1, ptr %4, align 8
  %5 = load ptr, ptr %3, align 8
  %6 = load i64, ptr %4, align 8
  %7 = getelementptr inbounds %class.EventObjectAllocationInNewTLAB, ptr %5, i32 0, i32 2
  store i64 %6, ptr %7, align 8
  ret void
}

; Function Attrs: mustprogress nounwind uwtable
define linkonce_odr hidden void @_ZN30EventObjectAllocationInNewTLAB15set_objectClassEPK5Klass(ptr noundef nonnull align 8 dereferenceable(48) %0, ptr noundef %1) #1 comdat align 2 {
  %3 = alloca ptr, align 8
  %4 = alloca ptr, align 8
  store ptr %0, ptr %3, align 8
  store ptr %1, ptr %4, align 8
  %5 = load ptr, ptr %3, align 8
  %6 = load ptr, ptr %4, align 8
  %7 = getelementptr inbounds %class.EventObjectAllocationInNewTLAB, ptr %5, i32 0, i32 1
  store ptr %6, ptr %7, align 8
  ret void
}

; Function Attrs: mustprogress nounwind uwtable
define linkonce_odr hidden noundef zeroext i1 @_ZN8JfrEventI30EventObjectAllocationInNewTLABE13should_commitEv(ptr noundef nonnull align 8 dereferenceable(19) %0) #1 comdat align 2 {
  %2 = alloca i1, align 1
  %3 = alloca ptr, align 8
  store ptr %0, ptr %3, align 8
  %4 = load ptr, ptr %3, align 8
  %5 = call noundef zeroext i1 @_ZN8JfrEventI30EventObjectAllocationInNewTLABE10is_enabledEv()
  br i1 %5, label %7, label %6

6:                                                ; preds = %1
  store i1 false, ptr %2, align 1
  br label %20

7:                                                ; preds = %1
  %8 = getelementptr inbounds %class.JfrEvent.0, ptr %4, i32 0, i32 2
  %9 = load i8, ptr %8, align 8
  %10 = trunc i8 %9 to i1
  br i1 %10, label %11, label %12

11:                                               ; preds = %7
  store i1 true, ptr %2, align 1
  br label %20

12:                                               ; preds = %7
  %13 = call noundef zeroext i1 @_ZN8JfrEventI30EventObjectAllocationInNewTLABE8evaluateEv(ptr noundef nonnull align 8 dereferenceable(19) %4)
  %14 = getelementptr inbounds %class.JfrEvent.0, ptr %4, i32 0, i32 3
  %15 = zext i1 %13 to i8
  store i8 %15, ptr %14, align 1
  %16 = getelementptr inbounds %class.JfrEvent.0, ptr %4, i32 0, i32 4
  store i8 1, ptr %16, align 2
  %17 = getelementptr inbounds %class.JfrEvent.0, ptr %4, i32 0, i32 3
  %18 = load i8, ptr %17, align 1
  %19 = trunc i8 %18 to i1
  store i1 %19, ptr %2, align 1
  br label %20

20:                                               ; preds = %12, %11, %6
  %21 = load i1, ptr %2, align 1
  ret i1 %21
}

; Function Attrs: mustprogress nounwind uwtable
define linkonce_odr hidden void @_ZN30EventObjectAllocationInNewTLABC2E14EventStartTime(ptr noundef nonnull align 8 dereferenceable(48) %0, i32 noundef %1) unnamed_addr #1 comdat align 2 {
  %3 = alloca ptr, align 8
  %4 = alloca i32, align 4
  store ptr %0, ptr %3, align 8
  store i32 %1, ptr %4, align 4
  %5 = load ptr, ptr %3, align 8
  %6 = load i32, ptr %4, align 4
  call void @_ZN8JfrEventI30EventObjectAllocationInNewTLABEC2E14EventStartTime(ptr noundef nonnull align 8 dereferenceable(19) %5, i32 noundef %6)
  ret void
}

; Function Attrs: mustprogress nounwind uwtable
define hidden void @_ZN11AllocTracer27send_allocation_in_new_tlabEP5KlassPP12HeapWordImplmmP10JavaThread(ptr noundef %0, ptr noundef %1, i64 noundef %2, i64 noundef %3, ptr noundef %4) #1 align 2 {
  %6 = alloca ptr, align 8
  %7 = alloca ptr, align 8
  %8 = alloca i64, align 8
  %9 = alloca i64, align 8
  %10 = alloca ptr, align 8
  %11 = alloca %class.JfrAllocationTracer, align 1
  %12 = alloca %class.EventObjectAllocationInNewTLAB, align 8
  store ptr %0, ptr %6, align 8
  store ptr %1, ptr %7, align 8
  store i64 %2, ptr %8, align 8
  store i64 %3, ptr %9, align 8
  store ptr %4, ptr %10, align 8
  %13 = load ptr, ptr %6, align 8
  %14 = load ptr, ptr %7, align 8
  %15 = load i64, ptr %9, align 8
  %16 = load ptr, ptr %10, align 8
  call void @_ZN19JfrAllocationTracerC1EPK5KlassPP12HeapWordImplmbP10JavaThread(ptr noundef nonnull align 1 dereferenceable(1) %11, ptr noundef %13, ptr noundef %14, i64 noundef %15, i1 noundef zeroext false, ptr noundef %16)
  call void @_ZN30EventObjectAllocationInNewTLABC2E14EventStartTime(ptr noundef nonnull align 8 dereferenceable(48) %12, i32 noundef 1)
  %17 = call noundef zeroext i1 @_ZN8JfrEventI30EventObjectAllocationInNewTLABE13should_commitEv(ptr noundef nonnull align 8 dereferenceable(19) %12)
  br i1 %17, label %18, label %22

18:                                               ; preds = %5
  %19 = load ptr, ptr %6, align 8
  call void @_ZN30EventObjectAllocationInNewTLAB15set_objectClassEPK5Klass(ptr noundef nonnull align 8 dereferenceable(48) %12, ptr noundef %19)
  %20 = load i64, ptr %9, align 8
  call void @_ZN30EventObjectAllocationInNewTLAB18set_allocationSizeEm(ptr noundef nonnull align 8 dereferenceable(48) %12, i64 noundef %20)
  %21 = load i64, ptr %8, align 8
  call void @_ZN30EventObjectAllocationInNewTLAB12set_tlabSizeEm(ptr noundef nonnull align 8 dereferenceable(48) %12, i64 noundef %21)
  call void @_ZN8JfrEventI30EventObjectAllocationInNewTLABE6commitEv(ptr noundef nonnull align 8 dereferenceable(19) %12)
  br label %22

22:                                               ; preds = %18, %5
  ret void
}