; Function Attrs: mustprogress nounwind uwtable
define hidden void @_ZN11AllocTracer27send_allocation_in_new_tlabEP5KlassPP12HeapWordImplmmP10JavaThread(ptr noundef %0, ptr noundef %1, i64 noundef %2, i64 noundef %3, ptr noundef %4) local_unnamed_addr #0 align 2 {
  %6 = alloca %class.JfrAllocationTracer, align 1
  %7 = alloca %class.EventObjectAllocationInNewTLAB, align 8
  call void @_ZN19JfrAllocationTracerC1EPK5KlassPP12HeapWordImplmbP10JavaThread(ptr noundef nonnull align 1 dereferenceable(1) %6, ptr noundef %0, ptr noundef %1, i64 noundef %3, i1 noundef zeroext false, ptr noundef %4) #7
  %8 = getelementptr inbounds i8, ptr %7, i64 8
  call void @llvm.memset.p0.i64(ptr noundef nonnull align 8 dereferenceable(11) %8, i8 0, i64 11, i1 false)
  %9 = load i8, ptr getelementptr inbounds (i8, ptr @_ZN15JfrEventSetting19_jvm_event_settingsE, i64 2153), align 1
  %.not.i.not = icmp eq i8 %9, 0
  br i1 %.not.i.not, label %_ZN8JfrEventI30EventObjectAllocationInNewTLABE13should_commitEv.exit, label %10

10:                                               ; preds = %5
  %11 = getelementptr inbounds i8, ptr %7, i64 18
  %12 = getelementptr inbounds i8, ptr %7, i64 17
  %13 = call noundef i64 @_ZN33FastUnorderedElapsedCounterSource3nowEv() #7
  store i64 %13, ptr %7, align 8
  store i8 1, ptr %12, align 1
  store i8 1, ptr %11, align 2
  %14 = getelementptr inbounds i8, ptr %7, i64 24
  store ptr %0, ptr %14, align 8
  %15 = getelementptr inbounds i8, ptr %7, i64 32
  store i64 %3, ptr %15, align 8
  %16 = getelementptr inbounds i8, ptr %7, i64 40
  store i64 %2, ptr %16, align 8
  call void @_ZN8JfrEventI30EventObjectAllocationInNewTLABE11write_eventEv(ptr noundef nonnull align 8 dereferenceable(19) %7)
  br label %_ZN8JfrEventI30EventObjectAllocationInNewTLABE13should_commitEv.exit

_ZN8JfrEventI30EventObjectAllocationInNewTLABE13should_commitEv.exit: ; preds = %10, %5
  ret void
}